; Function Attrs: null_pointer_is_valid sspstrong uwtable
define internal void @gmr1_rr_msg_chan_release(ptr noundef %0, ptr noundef %1, ptr noundef %2, i32 noundef %3, i32 noundef %4) #1 {
  %6 = icmp sgt i32 %4, 0
  br i1 %6, label %7, label %9

7:                                                ; preds = %5
  %8 = tail call zeroext i16 @elem_v(ptr noundef %0, ptr noundef %1, ptr noundef %2, i32 noundef 15, i32 noundef 7, i32 noundef %3, ptr noundef null)
  %.not = icmp eq i16 %8, 0
  br i1 %.not, label %9, label %12

9:                                                ; preds = %7, %5
  %10 = tail call ptr @get_gsm_a_msg_string(i32 noundef 15, i32 noundef 7)
  %11 = tail call ptr (ptr, ptr, ptr, ptr, i32, i32, ptr, ...) @proto_tree_add_expert_format(ptr noundef %1, ptr noundef %2, ptr noundef nonnull @ei_gmr1_missing_mandatory_element, ptr noundef %0, i32 noundef %3, i32 noundef 0, ptr noundef nonnull @.str.273, ptr noundef %10, ptr noundef nonnull @.str.274)
  br label %12

12:                                               ; preds = %7, %9
  ret void
}